; Function Attrs: nounwind uwtable
define void @gvrender_comment(ptr noundef %0, ptr noundef %1) local_unnamed_addr #0 {
  %3 = getelementptr inbounds nuw i8, ptr %0, i64 120
  %4 = load ptr, ptr %3, align 8, !tbaa !47
  %.not = icmp eq ptr %1, null
  br i1 %.not, label %11, label %5

5:                                                ; preds = %2
  %6 = load i8, ptr %1, align 1, !tbaa !106
  %.not10 = icmp eq i8 %6, 0
  %.not11 = icmp eq ptr %4, null
  %or.cond = select i1 %.not10, i1 true, i1 %.not11
  br i1 %or.cond, label %11, label %7

7:                                                ; preds = %5
  %8 = getelementptr inbounds nuw i8, ptr %4, i64 224
  %9 = load ptr, ptr %8, align 8, !tbaa !134
  %.not12 = icmp eq ptr %9, null
  br i1 %.not12, label %11, label %10

10:                                               ; preds = %7
  tail call void %9(ptr noundef nonnull %0, ptr noundef nonnull %1) #22
  br label %11

11:                                               ; preds = %10, %7, %2, %5
  ret void
}